target datalayout = "e-m:e-p270:32:32-p271:32:32-p272:64:64-i64:64-i128:128-f80:128-n8:16:32:64-S128"
target triple = "x86_64-pc-linux-gnu"

%struct.ident_t = type { i32, i32, i32, i32, ptr }
%class.anon.331 = type { ptr, i8, ptr }

@1 = private unnamed_addr constant %struct.ident_t { i32 0, i32 514, i32 0, i32 22, ptr @0 }, align 8

; Function Attrs: inlinehint mustprogress ssp uwtable
define internal void @"_ZZZZN6open3d1t8geometry6kernel10pointcloud33EstimateNormalsFromCovariancesCPUERKNS_4core6TensorERS5_bENK3$_0clEvENKUlvE0_clEvENKUllE_clEl"(ptr noundef nonnull align 8 dereferenceable(24) %0, i64 noundef %1) #3 align 2 {
  %3 = alloca ptr, align 8
  %4 = alloca i64, align 8
  %5 = alloca i32, align 4
  %6 = alloca i32, align 4
  %7 = alloca [3 x double], align 16
  store ptr %0, ptr %3, align 8, !tbaa !32
  store i64 %1, ptr %4, align 8, !tbaa !15
  %8 = load ptr, ptr %3, align 8
  call void @llvm.lifetime.start.p0(i64 4, ptr %5) #27
  %9 = load i64, ptr %4, align 8, !tbaa !15
  %10 = mul nsw i64 9, %9
  %11 = trunc i64 %10 to i32
  store i32 %11, ptr %5, align 4, !tbaa !47
  call void @llvm.lifetime.start.p0(i64 4, ptr %6) #27
  %12 = load i64, ptr %4, align 8, !tbaa !15
  %13 = mul nsw i64 3, %12
  %14 = trunc i64 %13 to i32
  store i32 %14, ptr %6, align 4, !tbaa !47
  call void @llvm.lifetime.start.p0(i64 24, ptr %7) #27
  call void @llvm.memset.p0.i64(ptr align 16 %7, i8 0, i64 24, i1 false)
  %15 = getelementptr inbounds nuw %class.anon.331, ptr %8, i32 0, i32 0
  %16 = load ptr, ptr %15, align 8, !tbaa !1831
  %17 = load i32, ptr %5, align 4, !tbaa !47
  %18 = sext i32 %17 to i64
  %19 = getelementptr inbounds double, ptr %16, i64 %18
  %20 = getelementptr inbounds [3 x double], ptr %7, i64 0, i64 0
  call void @_ZN6open3d1t8geometry6kernel10pointcloud40EstimatePointWiseNormalsWithFastEigen3x3IdEEvPKT_PS5_(ptr noundef %19, ptr noundef %20)
  %21 = getelementptr inbounds [3 x double], ptr %7, i64 0, i64 0
  %22 = load double, ptr %21, align 16, !tbaa !64
  %23 = getelementptr inbounds [3 x double], ptr %7, i64 0, i64 0
  %24 = load double, ptr %23, align 16, !tbaa !64
  %25 = getelementptr inbounds [3 x double], ptr %7, i64 0, i64 1
  %26 = load double, ptr %25, align 8, !tbaa !64
  %27 = getelementptr inbounds [3 x double], ptr %7, i64 0, i64 1
  %28 = load double, ptr %27, align 8, !tbaa !64
  %29 = fmul double %26, %28
  %30 = call double @llvm.fmuladd.f64(double %22, double %24, double %29)
  %31 = getelementptr inbounds [3 x double], ptr %7, i64 0, i64 2
  %32 = load double, ptr %31, align 16, !tbaa !64
  %33 = getelementptr inbounds [3 x double], ptr %7, i64 0, i64 2
  %34 = load double, ptr %33, align 16, !tbaa !64
  %35 = call double @llvm.fmuladd.f64(double %32, double %34, double %30)
  %36 = fcmp oeq double %35, 0.000000e+00
  br i1 %36, label %37, label %45

37:                                               ; preds = %2
  %38 = getelementptr inbounds nuw %class.anon.331, ptr %8, i32 0, i32 1
  %39 = load i8, ptr %38, align 8, !tbaa !1834, !range !29, !noundef !30
  %40 = trunc i8 %39 to i1
  br i1 %40, label %45, label %41

41:                                               ; preds = %37
  %42 = getelementptr inbounds [3 x double], ptr %7, i64 0, i64 0
  store double 0.000000e+00, ptr %42, align 16, !tbaa !64
  %43 = getelementptr inbounds [3 x double], ptr %7, i64 0, i64 1
  store double 0.000000e+00, ptr %43, align 8, !tbaa !64
  %44 = getelementptr inbounds [3 x double], ptr %7, i64 0, i64 2
  store double 1.000000e+00, ptr %44, align 16, !tbaa !64
  br label %45

45:                                               ; preds = %41, %37, %2
  %46 = getelementptr inbounds nuw %class.anon.331, ptr %8, i32 0, i32 1
  %47 = load i8, ptr %46, align 8, !tbaa !1834, !range !29, !noundef !30
  %48 = trunc i8 %47 to i1
  br i1 %48, label %49, label %91

49:                                               ; preds = %45
  %50 = getelementptr inbounds nuw %class.anon.331, ptr %8, i32 0, i32 2
  %51 = load ptr, ptr %50, align 8, !tbaa !1835
  %52 = load i32, ptr %6, align 4, !tbaa !47
  %53 = sext i32 %52 to i64
  %54 = getelementptr inbounds double, ptr %51, i64 %53
  %55 = load double, ptr %54, align 8, !tbaa !64
  %56 = getelementptr inbounds [3 x double], ptr %7, i64 0, i64 0
  %57 = load double, ptr %56, align 16, !tbaa !64
  %58 = getelementptr inbounds nuw %class.anon.331, ptr %8, i32 0, i32 2
  %59 = load ptr, ptr %58, align 8, !tbaa !1835
  %60 = load i32, ptr %6, align 4, !tbaa !47
  %61 = add nsw i32 %60, 1
  %62 = sext i32 %61 to i64
  %63 = getelementptr inbounds double, ptr %59, i64 %62
  %64 = load double, ptr %63, align 8, !tbaa !64
  %65 = getelementptr inbounds [3 x double], ptr %7, i64 0, i64 1
  %66 = load double, ptr %65, align 8, !tbaa !64
  %67 = fmul double %64, %66
  %68 = call double @llvm.fmuladd.f64(double %55, double %57, double %67)
  %69 = getelementptr inbounds nuw %class.anon.331, ptr %8, i32 0, i32 2
  %70 = load ptr, ptr %69, align 8, !tbaa !1835
  %71 = load i32, ptr %6, align 4, !tbaa !47
  %72 = add nsw i32 %71, 2
  %73 = sext i32 %72 to i64
  %74 = getelementptr inbounds double, ptr %70, i64 %73
  %75 = load double, ptr %74, align 8, !tbaa !64
  %76 = getelementptr inbounds [3 x double], ptr %7, i64 0, i64 2
  %77 = load double, ptr %76, align 16, !tbaa !64
  %78 = call double @llvm.fmuladd.f64(double %75, double %77, double %68)
  %79 = fcmp olt double %78, 0.000000e+00
  br i1 %79, label %80, label %90

80:                                               ; preds = %49
  %81 = getelementptr inbounds [3 x double], ptr %7, i64 0, i64 0
  %82 = load double, ptr %81, align 16, !tbaa !64
  %83 = fmul double %82, -1.000000e+00
  store double %83, ptr %81, align 16, !tbaa !64
  %84 = getelementptr inbounds [3 x double], ptr %7, i64 0, i64 1
  %85 = load double, ptr %84, align 8, !tbaa !64
  %86 = fmul double %85, -1.000000e+00
  store double %86, ptr %84, align 8, !tbaa !64
  %87 = getelementptr inbounds [3 x double], ptr %7, i64 0, i64 2
  %88 = load double, ptr %87, align 16, !tbaa !64
  %89 = fmul double %88, -1.000000e+00
  store double %89, ptr %87, align 16, !tbaa !64
  br label %90

90:                                               ; preds = %80, %49
  br label %91

91:                                               ; preds = %90, %45
  %92 = getelementptr inbounds [3 x double], ptr %7, i64 0, i64 0
  %93 = load double, ptr %92, align 16, !tbaa !64
  %94 = getelementptr inbounds nuw %class.anon.331, ptr %8, i32 0, i32 2
  %95 = load ptr, ptr %94, align 8, !tbaa !1835
  %96 = load i32, ptr %6, align 4, !tbaa !47
  %97 = sext i32 %96 to i64
  %98 = getelementptr inbounds double, ptr %95, i64 %97
  store double %93, ptr %98, align 8, !tbaa !64
  %99 = getelementptr inbounds [3 x double], ptr %7, i64 0, i64 1
  %100 = load double, ptr %99, align 8, !tbaa !64
  %101 = getelementptr inbounds nuw %class.anon.331, ptr %8, i32 0, i32 2
  %102 = load ptr, ptr %101, align 8, !tbaa !1835
  %103 = load i32, ptr %6, align 4, !tbaa !47
  %104 = add nsw i32 %103, 1
  %105 = sext i32 %104 to i64
  %106 = getelementptr inbounds double, ptr %102, i64 %105
  store double %100, ptr %106, align 8, !tbaa !64
  %107 = getelementptr inbounds [3 x double], ptr %7, i64 0, i64 2
  %108 = load double, ptr %107, align 16, !tbaa !64
  %109 = getelementptr inbounds nuw %class.anon.331, ptr %8, i32 0, i32 2
  %110 = load ptr, ptr %109, align 8, !tbaa !1835
  %111 = load i32, ptr %6, align 4, !tbaa !47
  %112 = add nsw i32 %111, 2
  %113 = sext i32 %112 to i64
  %114 = getelementptr inbounds double, ptr %110, i64 %113
  store double %108, ptr %114, align 8, !tbaa !64
  call void @llvm.lifetime.end.p0(i64 24, ptr %7) #27
  call void @llvm.lifetime.end.p0(i64 4, ptr %6) #27
  call void @llvm.lifetime.end.p0(i64 4, ptr %5) #27
  ret void
}

; Function Attrs: alwaysinline norecurse nounwind ssp uwtable
define internal void @"_ZN6open3d4core15ParallelForCPU_IZZZNS_1t8geometry6kernel10pointcloud33EstimateNormalsFromCovariancesCPUERKNS0_6TensorERS6_bENK3$_0clEvENKUlvE0_clEvEUllE_EEvRKNS0_6DeviceElRKT_.omp_outlined"(ptr noalias noundef %0, ptr noalias noundef %1, ptr noundef nonnull align 8 dereferenceable(8) %2, ptr noundef nonnull align 8 dereferenceable(24) %3) #26 personality ptr @__gxx_personality_v0 {
  %5 = alloca ptr, align 8
  %6 = alloca ptr, align 8
  %7 = alloca ptr, align 8
  %8 = alloca ptr, align 8
  %9 = alloca ptr, align 8
  %10 = alloca i64, align 8
  %11 = alloca i64, align 8
  %12 = alloca i64, align 8
  %13 = alloca i64, align 8
  %14 = alloca i64, align 8
  %15 = alloca i64, align 8
  %16 = alloca i64, align 8
  %17 = alloca i32, align 4
  %18 = alloca i64, align 8
  store ptr %0, ptr %5, align 8, !tbaa !276
  store ptr %1, ptr %6, align 8, !tbaa !276
  store ptr %2, ptr %7, align 8, !tbaa !35
  store ptr %3, ptr %8, align 8, !tbaa !32
  %19 = load ptr, ptr %7, align 8, !tbaa !35
  %20 = load ptr, ptr %8, align 8, !tbaa !32
  store ptr %20, ptr %9, align 8
  call void @llvm.lifetime.start.p0(i64 8, ptr %10) #27
  call void @llvm.lifetime.start.p0(i64 8, ptr %11) #27
  %21 = load i64, ptr %19, align 8, !tbaa !15
  store i64 %21, ptr %11, align 8, !tbaa !15
  call void @llvm.lifetime.start.p0(i64 8, ptr %12) #27
  %22 = load i64, ptr %11, align 8, !tbaa !15
  %23 = sub nsw i64 %22, 0
  %24 = sdiv i64 %23, 1
  %25 = sub nsw i64 %24, 1
  store i64 %25, ptr %12, align 8, !tbaa !15
  call void @llvm.lifetime.start.p0(i64 8, ptr %13) #27
  store i64 0, ptr %13, align 8, !tbaa !15
  call void @llvm.lifetime.end.p0(i64 8, ptr %13) #27
  %26 = load i64, ptr %11, align 8, !tbaa !15
  %27 = icmp slt i64 0, %26
  br i1 %27, label %28, label %62

28:                                               ; preds = %4
  call void @llvm.lifetime.start.p0(i64 8, ptr %14) #27
  store i64 0, ptr %14, align 8, !tbaa !15
  call void @llvm.lifetime.start.p0(i64 8, ptr %15) #27
  %29 = load i64, ptr %12, align 8, !tbaa !15
  store i64 %29, ptr %15, align 8, !tbaa !15
  call void @llvm.lifetime.start.p0(i64 8, ptr %16) #27
  store i64 1, ptr %16, align 8, !tbaa !15
  call void @llvm.lifetime.start.p0(i64 4, ptr %17) #27
  store i32 0, ptr %17, align 4, !tbaa !47
  call void @llvm.lifetime.start.p0(i64 8, ptr %18) #27
  %30 = load ptr, ptr %5, align 8
  %31 = load i32, ptr %30, align 4, !tbaa !47
  call void @__kmpc_for_static_init_8(ptr @1, i32 %31, i32 34, ptr %17, ptr %14, ptr %15, ptr %16, i64 1, i64 1)
  %32 = load i64, ptr %15, align 8, !tbaa !15
  %33 = load i64, ptr %12, align 8, !tbaa !15
  %34 = icmp sgt i64 %32, %33
  br i1 %34, label %35, label %37

35:                                               ; preds = %28
  %36 = load i64, ptr %12, align 8, !tbaa !15
  br label %39

37:                                               ; preds = %28
  %38 = load i64, ptr %15, align 8, !tbaa !15
  br label %39

39:                                               ; preds = %37, %35
  %40 = phi i64 [ %36, %35 ], [ %38, %37 ]
  store i64 %40, ptr %15, align 8, !tbaa !15
  %41 = load i64, ptr %14, align 8, !tbaa !15
  store i64 %41, ptr %10, align 8, !tbaa !15
  br label %42

42:                                               ; preds = %55, %39
  %43 = load i64, ptr %10, align 8, !tbaa !15
  %44 = load i64, ptr %15, align 8, !tbaa !15
  %45 = icmp sle i64 %43, %44
  br i1 %45, label %47, label %46

46:                                               ; preds = %42
  br label %58

47:                                               ; preds = %42
  %48 = load i64, ptr %10, align 8, !tbaa !15
  %49 = mul nsw i64 %48, 1
  %50 = add nsw i64 0, %49
  store i64 %50, ptr %18, align 8, !tbaa !15
  %51 = load ptr, ptr %9, align 8, !tbaa !32
  %52 = load i64, ptr %18, align 8, !tbaa !15
  invoke void @"_ZZZZN6open3d1t8geometry6kernel10pointcloud33EstimateNormalsFromCovariancesCPUERKNS_4core6TensorERS5_bENK3$_0clEvENKUlvE0_clEvENKUllE_clEl"(ptr noundef nonnull align 8 dereferenceable(24) %51, i64 noundef %52)
          to label %53 unwind label %63

53:                                               ; preds = %47
  br label %54

54:                                               ; preds = %53
  br label %55

55:                                               ; preds = %54
  %56 = load i64, ptr %10, align 8, !tbaa !15
  %57 = add nsw i64 %56, 1
  store i64 %57, ptr %10, align 8, !tbaa !15
  br label %42

58:                                               ; preds = %46
  br label %59

59:                                               ; preds = %58
  %60 = load ptr, ptr %5, align 8
  %61 = load i32, ptr %60, align 4, !tbaa !47
  call void @__kmpc_for_static_fini(ptr @1, i32 %61)
  call void @llvm.lifetime.end.p0(i64 8, ptr %18) #27
  call void @llvm.lifetime.end.p0(i64 4, ptr %17) #27
  call void @llvm.lifetime.end.p0(i64 8, ptr %16) #27
  call void @llvm.lifetime.end.p0(i64 8, ptr %15) #27
  call void @llvm.lifetime.end.p0(i64 8, ptr %14) #27
  br label %62

62:                                               ; preds = %59, %4
  call void @llvm.lifetime.end.p0(i64 8, ptr %12) #27
  call void @llvm.lifetime.end.p0(i64 8, ptr %11) #27
  call void @llvm.lifetime.end.p0(i64 8, ptr %10) #27
  ret void

63:                                               ; preds = %47
  %64 = landingpad { ptr, i32 }
          catch ptr null
  %65 = extractvalue { ptr, i32 } %64, 0
  call void @__clang_call_terminate(ptr %65) #31
  unreachable
}