; Function Attrs: alwaysinline norecurse nounwind ssp uwtable
define internal void @"_ZN6open3d4core15ParallelForCPU_IZZZNS_1t8geometry6kernel10pointcloud33EstimateNormalsFromCovariancesCPUERKNS0_6TensorERS6_bENK3$_0clEvENKUlvE0_clEvEUllE_EEvRKNS0_6DeviceElRKT_.omp_outlined"(ptr noalias noundef readonly captures(none) %0, ptr noalias readnone captures(none) %1, ptr noundef nonnull readonly align 8 captures(none) dereferenceable(8) %2, ptr noundef nonnull readonly align 8 captures(none) dereferenceable(24) %3) #25 personality ptr @__gxx_personality_v0 {
  %5 = alloca [3 x double], align 16
  %6 = alloca i64, align 8
  %7 = alloca i64, align 8
  %8 = alloca i64, align 8
  %9 = alloca i32, align 4
  %10 = load i64, ptr %2, align 8, !tbaa !8
  %11 = icmp sgt i64 %10, 0
  br i1 %11, label %12, label %65

12:                                               ; preds = %4
  %13 = add nsw i64 %10, -1
  call void @llvm.lifetime.start.p0(i64 8, ptr nonnull %6) #26
  store i64 0, ptr %6, align 8, !tbaa !8
  call void @llvm.lifetime.start.p0(i64 8, ptr nonnull %7) #26
  store i64 %13, ptr %7, align 8, !tbaa !8
  call void @llvm.lifetime.start.p0(i64 8, ptr nonnull %8) #26
  store i64 1, ptr %8, align 8, !tbaa !8
  call void @llvm.lifetime.start.p0(i64 4, ptr nonnull %9) #26
  store i32 0, ptr %9, align 4, !tbaa !34
  %14 = load i32, ptr %0, align 4, !tbaa !34
  call void @__kmpc_for_static_init_8(ptr nonnull @1, i32 %14, i32 34, ptr nonnull %9, ptr nonnull %6, ptr nonnull %7, ptr nonnull %8, i64 1, i64 1)
  %15 = load i64, ptr %7, align 8, !tbaa !8
  %16 = call i64 @llvm.smin.i64(i64 %15, i64 %13)
  store i64 %16, ptr %7, align 8, !tbaa !8
  %17 = load i64, ptr %6, align 8, !tbaa !8
  %.not13 = icmp sgt i64 %17, %16
  br i1 %.not13, label %._crit_edge, label %.lr.ph

.lr.ph:                                           ; preds = %12
  %18 = getelementptr inbounds nuw i8, ptr %5, i64 8
  %19 = getelementptr inbounds nuw i8, ptr %5, i64 16
  %20 = getelementptr inbounds nuw i8, ptr %3, i64 8
  %21 = getelementptr inbounds nuw i8, ptr %3, i64 16
  br label %22

22:                                               ; preds = %.lr.ph, %54
  %.014 = phi i64 [ %17, %.lr.ph ], [ %63, %54 ]
  %23 = trunc i64 %.014 to i32
  %24 = mul i32 %23, 3
  call void @llvm.lifetime.start.p0(i64 24, ptr nonnull %5) #26
  call void @llvm.memset.p0.i64(ptr noundef nonnull align 16 dereferenceable(24) %5, i8 0, i64 24, i1 false)
  %25 = load ptr, ptr %3, align 8, !tbaa !1097
  %sext.i = mul i64 %.014, 38654705664
  %26 = ashr exact i64 %sext.i, 29
  %27 = getelementptr inbounds i8, ptr %25, i64 %26
  invoke void @_ZN6open3d1t8geometry6kernel10pointcloud40EstimatePointWiseNormalsWithFastEigen3x3IdEEvPKT_PS5_(ptr noundef %27, ptr noundef nonnull %5)
          to label %.noexc unwind label %66

.noexc:                                           ; preds = %22
  %28 = load double, ptr %5, align 16, !tbaa !132
  %29 = load double, ptr %18, align 8, !tbaa !132
  %30 = fmul double %29, %29
  %31 = call double @llvm.fmuladd.f64(double %28, double %28, double %30)
  %32 = load double, ptr %19, align 16, !tbaa !132
  %33 = call double @llvm.fmuladd.f64(double %32, double %32, double %31)
  %34 = fcmp une double %33, 0.000000e+00
  %35 = load i8, ptr %20, align 8, !range !13
  %36 = trunc nuw i8 %35 to i1
  %or.cond.i = select i1 %34, i1 true, i1 %36
  br i1 %or.cond.i, label %37, label %.thread.i

.thread.i:                                        ; preds = %.noexc
  call void @llvm.memset.p0.i64(ptr noundef nonnull align 16 dereferenceable(16) %5, i8 0, i64 16, i1 false)
  %.pre.pre = load ptr, ptr %21, align 8, !tbaa !1100
  br label %.sink.split.i

37:                                               ; preds = %.noexc
  %.pre15 = load ptr, ptr %21, align 8, !tbaa !1100
  br i1 %36, label %38, label %54

38:                                               ; preds = %37
  %39 = sext i32 %24 to i64
  %40 = getelementptr inbounds double, ptr %.pre15, i64 %39
  %41 = load double, ptr %40, align 8, !tbaa !132
  %42 = getelementptr i8, ptr %40, i64 8
  %43 = load double, ptr %42, align 8, !tbaa !132
  %44 = fmul double %29, %43
  %45 = call double @llvm.fmuladd.f64(double %41, double %28, double %44)
  %46 = getelementptr i8, ptr %40, i64 16
  %47 = load double, ptr %46, align 8, !tbaa !132
  %48 = call double @llvm.fmuladd.f64(double %47, double %32, double %45)
  %49 = fcmp olt double %48, 0.000000e+00
  br i1 %49, label %50, label %54

50:                                               ; preds = %38
  %51 = fneg double %28
  %52 = fneg double %29
  store double %52, ptr %18, align 8, !tbaa !132
  %53 = fneg double %32
  br label %.sink.split.i

.sink.split.i:                                    ; preds = %50, %.thread.i
  %.pre = phi ptr [ %.pre.pre, %.thread.i ], [ %.pre15, %50 ]
  %.sink.i = phi double [ 1.000000e+00, %.thread.i ], [ %53, %50 ]
  %.ph.i = phi double [ 0.000000e+00, %.thread.i ], [ %51, %50 ]
  store double %.sink.i, ptr %19, align 16, !tbaa !132
  br label %54

54:                                               ; preds = %.sink.split.i, %38, %37
  %55 = phi ptr [ %.pre15, %38 ], [ %.pre15, %37 ], [ %.pre, %.sink.split.i ]
  %56 = phi double [ %28, %38 ], [ %28, %37 ], [ %.ph.i, %.sink.split.i ]
  %57 = sext i32 %24 to i64
  %58 = getelementptr inbounds double, ptr %55, i64 %57
  store double %56, ptr %58, align 8, !tbaa !132
  %59 = load double, ptr %18, align 8, !tbaa !132
  %60 = getelementptr i8, ptr %58, i64 8
  store double %59, ptr %60, align 8, !tbaa !132
  %61 = load double, ptr %19, align 16, !tbaa !132
  %62 = getelementptr i8, ptr %58, i64 16
  store double %61, ptr %62, align 8, !tbaa !132
  call void @llvm.lifetime.end.p0(i64 24, ptr nonnull %5) #26
  %63 = add nsw i64 %.014, 1
  %64 = load i64, ptr %7, align 8, !tbaa !8
  %.not.not = icmp slt i64 %.014, %64
  br i1 %.not.not, label %22, label %._crit_edge

._crit_edge:                                      ; preds = %54, %12
  call void @__kmpc_for_static_fini(ptr nonnull @1, i32 %14)
  call void @llvm.lifetime.end.p0(i64 4, ptr nonnull %9) #26
  call void @llvm.lifetime.end.p0(i64 8, ptr nonnull %8) #26
  call void @llvm.lifetime.end.p0(i64 8, ptr nonnull %7) #26
  call void @llvm.lifetime.end.p0(i64 8, ptr nonnull %6) #26
  br label %65

65:                                               ; preds = %._crit_edge, %4
  ret void

66:                                               ; preds = %22
  %67 = landingpad { ptr, i32 }
          catch ptr null
  %68 = extractvalue { ptr, i32 } %67, 0
  call void @__clang_call_terminate(ptr %68) #36
  unreachable
}